; Function Attrs: mustprogress nofree norecurse nosync nounwind willreturn memory(none) uwtable
define range(i32 -1, 25) i32 @udbg_enumCount(i32 noundef %0) local_unnamed_addr #10 {
  %2 = icmp ult i32 %0, 6
  br i1 %2, label %switch.lookup, label %_ZL15_udbg_enumCount14UDebugEnumTypea.exit

switch.lookup:                                    ; preds = %1
  %3 = zext nneg i32 %0 to i64
  %switch.gep = getelementptr inbounds nuw [6 x i32], ptr @switch.table.udbg_enumArrayValue, i64 0, i64 %3
  %switch.load = load i32, ptr %switch.gep, align 4
  br label %_ZL15_udbg_enumCount14UDebugEnumTypea.exit

_ZL15_udbg_enumCount14UDebugEnumTypea.exit:       ; preds = %1, %switch.lookup
  %.0.i = phi i32 [ %switch.load, %switch.lookup ], [ -1, %1 ]
  ret i32 %.0.i
}